; Function Attrs: mustprogress noreturn uwtable
define void @_ZN5boost4urls6detail18throw_system_errorERKNS_6system10error_codeERKNS_15source_locationE(ptr noundef nonnull align 8 dereferenceable(24) %0, ptr noundef nonnull align 8 dereferenceable(24) %1) local_unnamed_addr #5 personality ptr @__gxx_personality_v0 {
  %3 = alloca %"class.std::__cxx11::basic_string", align 8
  %4 = alloca %"class.boost::system::system_error", align 8
  call void @llvm.lifetime.start.p0(i64 40, ptr nonnull %4) #22
  call void @llvm.lifetime.start.p0(i64 32, ptr nonnull %3) #22
  call void @_ZNK5boost6system10error_code4whatB5cxx11Ev(ptr dead_on_unwind nonnull writable sret(%"class.std::__cxx11::basic_string") align 8 %3, ptr noundef nonnull align 8 dereferenceable(24) %0)
  invoke void @_ZNSt13runtime_errorC2ERKNSt7__cxx1112basic_stringIcSt11char_traitsIcESaIcEEE(ptr noundef nonnull align 8 dereferenceable(40) %4, ptr noundef nonnull align 8 dereferenceable(32) %3)
          to label %5 unwind label %14

5:                                                ; preds = %2
  %6 = load ptr, ptr %3, align 8, !tbaa !13
  %7 = getelementptr inbounds nuw i8, ptr %3, i64 16
  %8 = icmp eq ptr %6, %7
  br i1 %8, label %_ZNKSt7__cxx1112basic_stringIcSt11char_traitsIcESaIcEE11_M_is_localEv.exit.thread.i.i.i, label %_ZNKSt7__cxx1112basic_stringIcSt11char_traitsIcESaIcEE11_M_is_localEv.exit.i.i.i

_ZNKSt7__cxx1112basic_stringIcSt11char_traitsIcESaIcEE11_M_is_localEv.exit.thread.i.i.i: ; preds = %5
  %9 = getelementptr inbounds nuw i8, ptr %3, i64 8
  %10 = load i64, ptr %9, align 8, !tbaa !16
  %11 = icmp ult i64 %10, 16
  call void @llvm.assume(i1 %11)
  br label %_ZN5boost6system12system_errorC2ERKNS0_10error_codeE.exit

_ZNKSt7__cxx1112basic_stringIcSt11char_traitsIcESaIcEE11_M_is_localEv.exit.i.i.i: ; preds = %5
  %12 = load i64, ptr %7, align 8, !tbaa !15
  %13 = add i64 %12, 1
  call void @_ZdlPvm(ptr noundef %6, i64 noundef %13) #25
  br label %_ZN5boost6system12system_errorC2ERKNS0_10error_codeE.exit

14:                                               ; preds = %2
  %15 = landingpad { ptr, i32 }
          cleanup
  %16 = load ptr, ptr %3, align 8, !tbaa !13
  %17 = getelementptr inbounds nuw i8, ptr %3, i64 16
  %18 = icmp eq ptr %16, %17
  br i1 %18, label %_ZNKSt7__cxx1112basic_stringIcSt11char_traitsIcESaIcEE11_M_is_localEv.exit.thread.i.i5.i, label %_ZNKSt7__cxx1112basic_stringIcSt11char_traitsIcESaIcEE11_M_is_localEv.exit.i.i4.i

_ZNKSt7__cxx1112basic_stringIcSt11char_traitsIcESaIcEE11_M_is_localEv.exit.thread.i.i5.i: ; preds = %14
  %19 = getelementptr inbounds nuw i8, ptr %3, i64 8
  %20 = load i64, ptr %19, align 8, !tbaa !16
  %21 = icmp ult i64 %20, 16
  call void @llvm.assume(i1 %21)
  br label %_ZNSt7__cxx1112basic_stringIcSt11char_traitsIcESaIcEED2Ev.exit6.i

_ZNKSt7__cxx1112basic_stringIcSt11char_traitsIcESaIcEE11_M_is_localEv.exit.i.i4.i: ; preds = %14
  %22 = load i64, ptr %17, align 8, !tbaa !15
  %23 = add i64 %22, 1
  call void @_ZdlPvm(ptr noundef %16, i64 noundef %23) #25
  br label %_ZNSt7__cxx1112basic_stringIcSt11char_traitsIcESaIcEED2Ev.exit6.i

common.resume:                                    ; preds = %26, %_ZNSt7__cxx1112basic_stringIcSt11char_traitsIcESaIcEED2Ev.exit6.i
  %common.resume.op = phi { ptr, i32 } [ %15, %_ZNSt7__cxx1112basic_stringIcSt11char_traitsIcESaIcEED2Ev.exit6.i ], [ %27, %26 ]
  resume { ptr, i32 } %common.resume.op

_ZNSt7__cxx1112basic_stringIcSt11char_traitsIcESaIcEED2Ev.exit6.i: ; preds = %_ZNKSt7__cxx1112basic_stringIcSt11char_traitsIcESaIcEE11_M_is_localEv.exit.i.i4.i, %_ZNKSt7__cxx1112basic_stringIcSt11char_traitsIcESaIcEE11_M_is_localEv.exit.thread.i.i5.i
  call void @llvm.lifetime.end.p0(i64 32, ptr nonnull %3) #22
  br label %common.resume

_ZN5boost6system12system_errorC2ERKNS0_10error_codeE.exit: ; preds = %_ZNKSt7__cxx1112basic_stringIcSt11char_traitsIcESaIcEE11_M_is_localEv.exit.thread.i.i.i, %_ZNKSt7__cxx1112basic_stringIcSt11char_traitsIcESaIcEE11_M_is_localEv.exit.i.i.i
  call void @llvm.lifetime.end.p0(i64 32, ptr nonnull %3) #22
  store ptr getelementptr inbounds inrange(-16, 24) (i8, ptr @_ZTVN5boost6system12system_errorE, i64 16), ptr %4, align 8, !tbaa !17
  %24 = getelementptr inbounds nuw i8, ptr %4, i64 16
  call void @llvm.memcpy.p0.p0.i64(ptr noundef nonnull align 8 dereferenceable(24) %24, ptr noundef nonnull align 8 dereferenceable(24) %0, i64 24, i1 false), !tbaa.struct !19
  invoke void @_ZN5boost15throw_exceptionINS_6system12system_errorEEEvRKT_RKNS_15source_locationE(ptr noundef nonnull align 8 dereferenceable(40) %4, ptr noundef nonnull align 8 dereferenceable(24) %1) #23
          to label %25 unwind label %26

25:                                               ; preds = %_ZN5boost6system12system_errorC2ERKNS0_10error_codeE.exit
  unreachable

26:                                               ; preds = %_ZN5boost6system12system_errorC2ERKNS0_10error_codeE.exit
  %27 = landingpad { ptr, i32 }
          cleanup
  call void @_ZNSt13runtime_errorD2Ev(ptr noundef nonnull align 8 dereferenceable(40) %4) #22
  call void @llvm.lifetime.end.p0(i64 40, ptr nonnull %4) #22
  br label %common.resume
}